target datalayout = "e-m:e-p270:32:32-p271:32:32-p272:64:64-i64:64-i128:128-f80:128-n8:16:32:64-S128"
target triple = "x86_64-pc-linux-gnu"

%struct.mbedtls_asn1_sequence = type { %struct.mbedtls_asn1_buf, ptr }
%struct.mbedtls_asn1_buf = type { i32, i64, ptr }

@.str.25 = private unnamed_addr constant [122 x i8] c"generated/home/dtcxzyw/WorkSpace/Projects/compilers/llvm-opt-benchmark/bench/lief/bench_build/mbed_src/library/x509_crt.c\00", align 1
@.str.26 = private unnamed_addr constant [5 x i8] c"U\1D \00\00", align 1

; Function Attrs: inlinehint nounwind uwtable
define internal i32 @mbedtls_error_add(i32 noundef %0, i32 noundef %1, ptr noundef %2, i32 noundef %3) #9 {
  %5 = alloca i32, align 4
  %6 = alloca i32, align 4
  %7 = alloca ptr, align 8
  %8 = alloca i32, align 4
  store i32 %0, ptr %5, align 4, !tbaa !12
  store i32 %1, ptr %6, align 4, !tbaa !12
  store ptr %2, ptr %7, align 8, !tbaa !8
  store i32 %3, ptr %8, align 4, !tbaa !12
  %9 = load i32, ptr %5, align 4, !tbaa !12
  %10 = load i32, ptr %6, align 4, !tbaa !12
  %11 = add nsw i32 %9, %10
  ret i32 %11
}

; Function Attrs: nounwind uwtable
define internal i32 @x509_get_certificate_policies(ptr noundef %0, ptr noundef %1, ptr noundef %2) #0 {
  %4 = alloca i32, align 4
  %5 = alloca ptr, align 8
  %6 = alloca ptr, align 8
  %7 = alloca ptr, align 8
  %8 = alloca i32, align 4
  %9 = alloca i32, align 4
  %10 = alloca i64, align 8
  %11 = alloca ptr, align 8
  %12 = alloca ptr, align 8
  %13 = alloca i32, align 4
  %14 = alloca %struct.mbedtls_asn1_buf, align 8
  %15 = alloca ptr, align 8
  store ptr %0, ptr %5, align 8, !tbaa !62
  store ptr %1, ptr %6, align 8, !tbaa !8
  store ptr %2, ptr %7, align 8, !tbaa !67
  call void @llvm.lifetime.start.p0(i64 4, ptr %8) #10
  call void @llvm.lifetime.start.p0(i64 4, ptr %9) #10
  store i32 0, ptr %9, align 4, !tbaa !12
  call void @llvm.lifetime.start.p0(i64 8, ptr %10) #10
  call void @llvm.lifetime.start.p0(i64 8, ptr %11) #10
  call void @llvm.lifetime.start.p0(i64 8, ptr %12) #10
  %16 = load ptr, ptr %7, align 8, !tbaa !67
  store ptr %16, ptr %12, align 8, !tbaa !67
  %17 = load ptr, ptr %5, align 8, !tbaa !62
  %18 = load ptr, ptr %6, align 8, !tbaa !8
  %19 = call i32 @mbedtls_asn1_get_tag(ptr noundef %17, ptr noundef %18, ptr noundef %10, i32 noundef 48)
  store i32 %19, ptr %8, align 4, !tbaa !12
  %20 = load i32, ptr %8, align 4, !tbaa !12
  %21 = icmp ne i32 %20, 0
  br i1 %21, label %22, label %25

22:                                               ; preds = %3
  %23 = load i32, ptr %8, align 4, !tbaa !12
  %24 = call i32 @mbedtls_error_add(i32 noundef -9472, i32 noundef %23, ptr noundef @.str.25, i32 noundef 752)
  store i32 %24, ptr %4, align 4
  store i32 1, ptr %13, align 4
  br label %171

25:                                               ; preds = %3
  %26 = load ptr, ptr %5, align 8, !tbaa !62
  %27 = load ptr, ptr %26, align 8, !tbaa !8
  %28 = load i64, ptr %10, align 8, !tbaa !10
  %29 = getelementptr inbounds nuw i8, ptr %27, i64 %28
  %30 = load ptr, ptr %6, align 8, !tbaa !8
  %31 = icmp ne ptr %29, %30
  br i1 %31, label %32, label %34

32:                                               ; preds = %25
  %33 = call i32 @mbedtls_error_add(i32 noundef -9472, i32 noundef -102, ptr noundef @.str.25, i32 noundef 757)
  store i32 %33, ptr %4, align 4
  store i32 1, ptr %13, align 4
  br label %171

34:                                               ; preds = %25
  %35 = load i64, ptr %10, align 8, !tbaa !10
  %36 = icmp eq i64 %35, 0
  br i1 %36, label %37, label %39

37:                                               ; preds = %34
  %38 = call i32 @mbedtls_error_add(i32 noundef -9472, i32 noundef -102, ptr noundef @.str.25, i32 noundef 765)
  store i32 %38, ptr %4, align 4
  store i32 1, ptr %13, align 4
  br label %171

39:                                               ; preds = %34
  br label %40

40:                                               ; preds = %159, %39
  %41 = load ptr, ptr %5, align 8, !tbaa !62
  %42 = load ptr, ptr %41, align 8, !tbaa !8
  %43 = load ptr, ptr %6, align 8, !tbaa !8
  %44 = icmp ult ptr %42, %43
  br i1 %44, label %45, label %160

45:                                               ; preds = %40
  call void @llvm.lifetime.start.p0(i64 24, ptr %14) #10
  call void @llvm.lifetime.start.p0(i64 8, ptr %15) #10
  %46 = load ptr, ptr %5, align 8, !tbaa !62
  %47 = load ptr, ptr %6, align 8, !tbaa !8
  %48 = call i32 @mbedtls_asn1_get_tag(ptr noundef %46, ptr noundef %47, ptr noundef %10, i32 noundef 48)
  store i32 %48, ptr %8, align 4, !tbaa !12
  %49 = icmp ne i32 %48, 0
  br i1 %49, label %50, label %53

50:                                               ; preds = %45
  %51 = load i32, ptr %8, align 4, !tbaa !12
  %52 = call i32 @mbedtls_error_add(i32 noundef -9472, i32 noundef %51, ptr noundef @.str.25, i32 noundef 777)
  store i32 %52, ptr %4, align 4
  store i32 1, ptr %13, align 4
  br label %157

53:                                               ; preds = %45
  %54 = load ptr, ptr %5, align 8, !tbaa !62
  %55 = load ptr, ptr %54, align 8, !tbaa !8
  %56 = load i64, ptr %10, align 8, !tbaa !10
  %57 = getelementptr inbounds nuw i8, ptr %55, i64 %56
  store ptr %57, ptr %15, align 8, !tbaa !8
  %58 = load ptr, ptr %5, align 8, !tbaa !62
  %59 = load ptr, ptr %15, align 8, !tbaa !8
  %60 = call i32 @mbedtls_asn1_get_tag(ptr noundef %58, ptr noundef %59, ptr noundef %10, i32 noundef 6)
  store i32 %60, ptr %8, align 4, !tbaa !12
  %61 = icmp ne i32 %60, 0
  br i1 %61, label %62, label %65

62:                                               ; preds = %53
  %63 = load i32, ptr %8, align 4, !tbaa !12
  %64 = call i32 @mbedtls_error_add(i32 noundef -9472, i32 noundef %63, ptr noundef @.str.25, i32 noundef 784)
  store i32 %64, ptr %4, align 4
  store i32 1, ptr %13, align 4
  br label %157

65:                                               ; preds = %53
  %66 = getelementptr inbounds nuw %struct.mbedtls_asn1_buf, ptr %14, i32 0, i32 0
  store i32 6, ptr %66, align 8, !tbaa !119
  %67 = load i64, ptr %10, align 8, !tbaa !10
  %68 = getelementptr inbounds nuw %struct.mbedtls_asn1_buf, ptr %14, i32 0, i32 1
  store i64 %67, ptr %68, align 8, !tbaa !79
  %69 = load ptr, ptr %5, align 8, !tbaa !62
  %70 = load ptr, ptr %69, align 8, !tbaa !8
  %71 = getelementptr inbounds nuw %struct.mbedtls_asn1_buf, ptr %14, i32 0, i32 2
  store ptr %70, ptr %71, align 8, !tbaa !80
  %72 = getelementptr inbounds nuw %struct.mbedtls_asn1_buf, ptr %14, i32 0, i32 1
  %73 = load i64, ptr %72, align 8, !tbaa !79
  %74 = icmp ne i64 4, %73
  br i1 %74, label %82, label %75

75:                                               ; preds = %65
  %76 = getelementptr inbounds nuw %struct.mbedtls_asn1_buf, ptr %14, i32 0, i32 2
  %77 = load ptr, ptr %76, align 8, !tbaa !80
  %78 = getelementptr inbounds nuw %struct.mbedtls_asn1_buf, ptr %14, i32 0, i32 1
  %79 = load i64, ptr %78, align 8, !tbaa !79
  %80 = call i32 @memcmp(ptr noundef @.str.26, ptr noundef %77, i64 noundef %79) #12
  %81 = icmp ne i32 %80, 0
  br label %82

82:                                               ; preds = %75, %65
  %83 = phi i1 [ true, %65 ], [ %81, %75 ]
  %84 = zext i1 %83 to i32
  %85 = icmp ne i32 %84, 0
  br i1 %85, label %86, label %87

86:                                               ; preds = %82
  store i32 -8320, ptr %9, align 4, !tbaa !12
  br label %87

87:                                               ; preds = %86, %82
  %88 = load ptr, ptr %12, align 8, !tbaa !67
  %89 = getelementptr inbounds nuw %struct.mbedtls_asn1_sequence, ptr %88, i32 0, i32 0
  %90 = getelementptr inbounds nuw %struct.mbedtls_asn1_buf, ptr %89, i32 0, i32 2
  %91 = load ptr, ptr %90, align 8, !tbaa !125
  %92 = icmp ne ptr %91, null
  br i1 %92, label %93, label %113

93:                                               ; preds = %87
  %94 = load ptr, ptr %12, align 8, !tbaa !67
  %95 = getelementptr inbounds nuw %struct.mbedtls_asn1_sequence, ptr %94, i32 0, i32 1
  %96 = load ptr, ptr %95, align 8, !tbaa !68
  %97 = icmp ne ptr %96, null
  br i1 %97, label %98, label %99

98:                                               ; preds = %93
  store i32 -9472, ptr %4, align 4
  store i32 1, ptr %13, align 4
  br label %157

99:                                               ; preds = %93
  %100 = call noalias ptr @calloc(i64 noundef 1, i64 noundef 32) #11
  %101 = load ptr, ptr %12, align 8, !tbaa !67
  %102 = getelementptr inbounds nuw %struct.mbedtls_asn1_sequence, ptr %101, i32 0, i32 1
  store ptr %100, ptr %102, align 8, !tbaa !68
  %103 = load ptr, ptr %12, align 8, !tbaa !67
  %104 = getelementptr inbounds nuw %struct.mbedtls_asn1_sequence, ptr %103, i32 0, i32 1
  %105 = load ptr, ptr %104, align 8, !tbaa !68
  %106 = icmp eq ptr %105, null
  br i1 %106, label %107, label %109

107:                                              ; preds = %99
  %108 = call i32 @mbedtls_error_add(i32 noundef -9472, i32 noundef -106, ptr noundef @.str.25, i32 noundef 812)
  store i32 %108, ptr %4, align 4
  store i32 1, ptr %13, align 4
  br label %157

109:                                              ; preds = %99
  %110 = load ptr, ptr %12, align 8, !tbaa !67
  %111 = getelementptr inbounds nuw %struct.mbedtls_asn1_sequence, ptr %110, i32 0, i32 1
  %112 = load ptr, ptr %111, align 8, !tbaa !68
  store ptr %112, ptr %12, align 8, !tbaa !67
  br label %113

113:                                              ; preds = %109, %87
  %114 = load ptr, ptr %12, align 8, !tbaa !67
  %115 = getelementptr inbounds nuw %struct.mbedtls_asn1_sequence, ptr %114, i32 0, i32 0
  store ptr %115, ptr %11, align 8, !tbaa !77
  %116 = getelementptr inbounds nuw %struct.mbedtls_asn1_buf, ptr %14, i32 0, i32 0
  %117 = load i32, ptr %116, align 8, !tbaa !119
  %118 = load ptr, ptr %11, align 8, !tbaa !77
  %119 = getelementptr inbounds nuw %struct.mbedtls_asn1_buf, ptr %118, i32 0, i32 0
  store i32 %117, ptr %119, align 8, !tbaa !119
  %120 = getelementptr inbounds nuw %struct.mbedtls_asn1_buf, ptr %14, i32 0, i32 2
  %121 = load ptr, ptr %120, align 8, !tbaa !80
  %122 = load ptr, ptr %11, align 8, !tbaa !77
  %123 = getelementptr inbounds nuw %struct.mbedtls_asn1_buf, ptr %122, i32 0, i32 2
  store ptr %121, ptr %123, align 8, !tbaa !80
  %124 = getelementptr inbounds nuw %struct.mbedtls_asn1_buf, ptr %14, i32 0, i32 1
  %125 = load i64, ptr %124, align 8, !tbaa !79
  %126 = load ptr, ptr %11, align 8, !tbaa !77
  %127 = getelementptr inbounds nuw %struct.mbedtls_asn1_buf, ptr %126, i32 0, i32 1
  store i64 %125, ptr %127, align 8, !tbaa !79
  %128 = load i64, ptr %10, align 8, !tbaa !10
  %129 = load ptr, ptr %5, align 8, !tbaa !62
  %130 = load ptr, ptr %129, align 8, !tbaa !8
  %131 = getelementptr inbounds nuw i8, ptr %130, i64 %128
  store ptr %131, ptr %129, align 8, !tbaa !8
  %132 = load ptr, ptr %5, align 8, !tbaa !62
  %133 = load ptr, ptr %132, align 8, !tbaa !8
  %134 = load ptr, ptr %15, align 8, !tbaa !8
  %135 = icmp ult ptr %133, %134
  br i1 %135, label %136, label %149

136:                                              ; preds = %113
  %137 = load ptr, ptr %5, align 8, !tbaa !62
  %138 = load ptr, ptr %15, align 8, !tbaa !8
  %139 = call i32 @mbedtls_asn1_get_tag(ptr noundef %137, ptr noundef %138, ptr noundef %10, i32 noundef 48)
  store i32 %139, ptr %8, align 4, !tbaa !12
  %140 = icmp ne i32 %139, 0
  br i1 %140, label %141, label %144

141:                                              ; preds = %136
  %142 = load i32, ptr %8, align 4, !tbaa !12
  %143 = call i32 @mbedtls_error_add(i32 noundef -9472, i32 noundef %142, ptr noundef @.str.25, i32 noundef 833)
  store i32 %143, ptr %4, align 4
  store i32 1, ptr %13, align 4
  br label %157

144:                                              ; preds = %136
  %145 = load i64, ptr %10, align 8, !tbaa !10
  %146 = load ptr, ptr %5, align 8, !tbaa !62
  %147 = load ptr, ptr %146, align 8, !tbaa !8
  %148 = getelementptr inbounds nuw i8, ptr %147, i64 %145
  store ptr %148, ptr %146, align 8, !tbaa !8
  br label %149

149:                                              ; preds = %144, %113
  %150 = load ptr, ptr %5, align 8, !tbaa !62
  %151 = load ptr, ptr %150, align 8, !tbaa !8
  %152 = load ptr, ptr %15, align 8, !tbaa !8
  %153 = icmp ne ptr %151, %152
  br i1 %153, label %154, label %156

154:                                              ; preds = %149
  %155 = call i32 @mbedtls_error_add(i32 noundef -9472, i32 noundef -102, ptr noundef @.str.25, i32 noundef 843)
  store i32 %155, ptr %4, align 4
  store i32 1, ptr %13, align 4
  br label %157

156:                                              ; preds = %149
  store i32 0, ptr %13, align 4
  br label %157

157:                                              ; preds = %156, %154, %141, %107, %98, %62, %50
  call void @llvm.lifetime.end.p0(i64 8, ptr %15) #10
  call void @llvm.lifetime.end.p0(i64 24, ptr %14) #10
  %158 = load i32, ptr %13, align 4
  switch i32 %158, label %171 [
    i32 0, label %159
  ]

159:                                              ; preds = %157
  br label %40, !llvm.loop !134

160:                                              ; preds = %40
  %161 = load ptr, ptr %12, align 8, !tbaa !67
  %162 = getelementptr inbounds nuw %struct.mbedtls_asn1_sequence, ptr %161, i32 0, i32 1
  store ptr null, ptr %162, align 8, !tbaa !68
  %163 = load ptr, ptr %5, align 8, !tbaa !62
  %164 = load ptr, ptr %163, align 8, !tbaa !8
  %165 = load ptr, ptr %6, align 8, !tbaa !8
  %166 = icmp ne ptr %164, %165
  br i1 %166, label %167, label %169

167:                                              ; preds = %160
  %168 = call i32 @mbedtls_error_add(i32 noundef -9472, i32 noundef -102, ptr noundef @.str.25, i32 noundef 852)
  store i32 %168, ptr %4, align 4
  store i32 1, ptr %13, align 4
  br label %171

169:                                              ; preds = %160
  %170 = load i32, ptr %9, align 4, !tbaa !12
  store i32 %170, ptr %4, align 4
  store i32 1, ptr %13, align 4
  br label %171

171:                                              ; preds = %169, %167, %157, %37, %32, %22
  call void @llvm.lifetime.end.p0(i64 8, ptr %12) #10
  call void @llvm.lifetime.end.p0(i64 8, ptr %11) #10
  call void @llvm.lifetime.end.p0(i64 8, ptr %10) #10
  call void @llvm.lifetime.end.p0(i64 4, ptr %9) #10
  call void @llvm.lifetime.end.p0(i64 4, ptr %8) #10
  %172 = load i32, ptr %4, align 4
  ret i32 %172
}