; Function Attrs: nounwind uwtable
define internal fastcc range(i32 -2147483648, 2147474176) i32 @x509_get_certificate_policies(ptr noundef nonnull %0, ptr noundef %1, ptr noundef nonnull captures(none) %2) unnamed_addr #0 {
  %4 = alloca i64, align 8
  call void @llvm.lifetime.start.p0(i64 8, ptr nonnull %4) #17
  %5 = call i32 @mbedtls_asn1_get_tag(ptr noundef nonnull %0, ptr noundef %1, ptr noundef nonnull %4, i32 noundef 48) #17
  %.not = icmp eq i32 %5, 0
  br i1 %.not, label %8, label %6

6:                                                ; preds = %3
  %7 = add nsw i32 %5, -9472
  br label %.thread69

8:                                                ; preds = %3
  %9 = load ptr, ptr %0, align 8, !tbaa !24
  %10 = load i64, ptr %4, align 8, !tbaa !25
  %11 = getelementptr inbounds nuw i8, ptr %9, i64 %10
  %.not59 = icmp ne ptr %11, %1
  %12 = icmp eq i64 %10, 0
  %or.cond = or i1 %12, %.not59
  br i1 %or.cond, label %.thread69, label %.preheader

.preheader:                                       ; preds = %8, %54
  %13 = phi ptr [ %22, %54 ], [ %9, %8 ]
  %.047 = phi ptr [ %.249, %54 ], [ %2, %8 ]
  %.044 = phi i32 [ %31, %54 ], [ 0, %8 ]
  %14 = icmp ult ptr %13, %1
  br i1 %14, label %15, label %56

15:                                               ; preds = %.preheader
  %16 = call i32 @mbedtls_asn1_get_tag(ptr noundef nonnull %0, ptr noundef nonnull %1, ptr noundef nonnull %4, i32 noundef 48) #17
  %.not61 = icmp eq i32 %16, 0
  br i1 %.not61, label %19, label %17

17:                                               ; preds = %15
  %18 = add nsw i32 %16, -9472
  br label %.thread69

19:                                               ; preds = %15
  %20 = load ptr, ptr %0, align 8, !tbaa !24
  %21 = load i64, ptr %4, align 8, !tbaa !25
  %22 = getelementptr inbounds nuw i8, ptr %20, i64 %21
  %23 = call i32 @mbedtls_asn1_get_tag(ptr noundef nonnull %0, ptr noundef %22, ptr noundef nonnull %4, i32 noundef 6) #17
  %.not62 = icmp eq i32 %23, 0
  br i1 %.not62, label %26, label %24

24:                                               ; preds = %19
  %25 = add nsw i32 %23, -9472
  br label %.thread69

26:                                               ; preds = %19
  %27 = load i64, ptr %4, align 8, !tbaa !25
  %28 = load ptr, ptr %0, align 8, !tbaa !24
  %.not63 = icmp eq i64 %27, 4
  br i1 %.not63, label %29, label %.thread

29:                                               ; preds = %26
  %bcmp = call i32 @bcmp(ptr noundef nonnull dereferenceable(4) @.str.26, ptr noundef nonnull dereferenceable(4) %28, i64 4)
  %bcmp.fr = freeze i32 %bcmp
  %.not74 = icmp eq i32 %bcmp.fr, 0
  br i1 %.not74, label %30, label %.thread

.thread:                                          ; preds = %26, %29
  br label %30

30:                                               ; preds = %29, %.thread
  %31 = phi i32 [ -8320, %.thread ], [ %.044, %29 ]
  %32 = getelementptr inbounds nuw i8, ptr %.047, i64 16
  %33 = load ptr, ptr %32, align 8, !tbaa !95
  %.not64 = icmp eq ptr %33, null
  br i1 %.not64, label %40, label %34

34:                                               ; preds = %30
  %35 = getelementptr inbounds nuw i8, ptr %.047, i64 24
  %36 = load ptr, ptr %35, align 8, !tbaa !72
  %.not65 = icmp eq ptr %36, null
  br i1 %.not65, label %37, label %.thread69

37:                                               ; preds = %34
  %38 = call noalias dereferenceable_or_null(32) ptr @calloc(i64 noundef 1, i64 noundef 32) #16
  store ptr %38, ptr %35, align 8, !tbaa !72
  %39 = icmp eq ptr %38, null
  br i1 %39, label %.thread69, label %40

40:                                               ; preds = %37, %30
  %.249 = phi ptr [ %.047, %30 ], [ %38, %37 ]
  store i32 6, ptr %.249, align 8, !tbaa !42
  %41 = getelementptr inbounds nuw i8, ptr %.249, i64 16
  store ptr %28, ptr %41, align 8, !tbaa !41
  %42 = getelementptr inbounds nuw i8, ptr %.249, i64 8
  store i64 %27, ptr %42, align 8, !tbaa !39
  %43 = load ptr, ptr %0, align 8, !tbaa !24
  %44 = getelementptr inbounds nuw i8, ptr %43, i64 %27
  store ptr %44, ptr %0, align 8, !tbaa !24
  %45 = icmp ult ptr %44, %22
  br i1 %45, label %46, label %54

46:                                               ; preds = %40
  %47 = call i32 @mbedtls_asn1_get_tag(ptr noundef nonnull %0, ptr noundef nonnull %22, ptr noundef nonnull %4, i32 noundef 48) #17
  %.not66 = icmp eq i32 %47, 0
  br i1 %.not66, label %50, label %48

48:                                               ; preds = %46
  %49 = add nsw i32 %47, -9472
  br label %.thread69

50:                                               ; preds = %46
  %51 = load i64, ptr %4, align 8, !tbaa !25
  %52 = load ptr, ptr %0, align 8, !tbaa !24
  %53 = getelementptr inbounds nuw i8, ptr %52, i64 %51
  store ptr %53, ptr %0, align 8, !tbaa !24
  br label %54

54:                                               ; preds = %50, %40
  %55 = phi ptr [ %53, %50 ], [ %44, %40 ]
  %.not67 = icmp eq ptr %55, %22
  br i1 %.not67, label %.preheader, label %.thread69, !llvm.loop !154

56:                                               ; preds = %.preheader
  %57 = getelementptr inbounds nuw i8, ptr %.047, i64 24
  store ptr null, ptr %57, align 8, !tbaa !72
  %.not60 = icmp eq ptr %13, %1
  %spec.select = select i1 %.not60, i32 %.044, i32 -9574
  br label %.thread69

.thread69:                                        ; preds = %54, %37, %34, %56, %48, %24, %17, %8, %6
  %.0 = phi i32 [ %7, %6 ], [ -9574, %8 ], [ %49, %48 ], [ %25, %24 ], [ %18, %17 ], [ %spec.select, %56 ], [ -9574, %54 ], [ -9472, %34 ], [ -9578, %37 ]
  call void @llvm.lifetime.end.p0(i64 8, ptr nonnull %4) #17
  ret i32 %.0
}